; Function Attrs: mustprogress noreturn uwtable
define internal void @_ZNK6google8protobuf8compiler3cpp12_GLOBAL__N_112RepeatedEnum26GenerateOneofCopyConstructEPNS0_2io7PrinterE(ptr nocapture nonnull readnone align 8 %this, ptr nocapture readnone %p) unnamed_addr #18 align 2 personality ptr @__gxx_personality_v0 {
entry:
  %ref.tmp2 = alloca %"class.absl::lts_20230802::log_internal::LogMessageFatal", align 8
  call void @_ZN4absl12lts_2023080212log_internal15LogMessageFatalC1EPKci(ptr noundef nonnull align 8 dereferenceable(16) %ref.tmp2, ptr noundef nonnull @.str.69, i32 noundef 348) #29
  %call3 = invoke noundef nonnull align 8 dereferenceable(16) ptr @_ZN4absl12lts_2023080212log_internal10LogMessagelsILi14EEERS2_RAT__Kc(ptr noundef nonnull align 8 dereferenceable(16) %ref.tmp2, ptr noundef nonnull align 1 dereferenceable(14) @.str.77)
          to label %invoke.cont unwind label %lpad

invoke.cont:                                      ; preds = %entry
  call void @_ZN4absl12lts_2023080212log_internal15LogMessageFatalD1Ev(ptr noundef nonnull align 8 dereferenceable(16) %ref.tmp2) #28
  unreachable

lpad:                                             ; preds = %entry
  %0 = landingpad { ptr, i32 }
          cleanup
  call void @_ZN4absl12lts_2023080212log_internal15LogMessageFatalD1Ev(ptr noundef nonnull align 8 dereferenceable(16) %ref.tmp2) #28
  unreachable
}